(dp0
S'164'
p1
S'Volkswagen Polo'
p2
sS'165'
p3
S'Maruti Omni'
p4
sS'166'
p5
S'Skoda Octavia'
p6
sS'167'
p7
S'Mercedes-Benz GLE'
p8
sS'160'
p9
S'Mahindra Ssangyong Rexton'
p10
sS'3'
p11
S'Hyundai i20 Active'
p12
sS'161'
p13
S'Mercedes-Benz GLA 45 AMG'
p14
sS'162'
p15
S'Bentley Mulsanne'
p16
sS'8'
p17
S'Caterham 7'
p18
sS'163'
p19
S'Toyota Etios Liva'
p20
sS'120'
p21
S'BMW 7 Series'
p22
sS'121'
p23
S'Maruti Ertiga'
p24
sS'122'
p25
S'Maruti Wagon R Stingray'
p26
sS'123'
p27
S'Fiat Abarth Avventura'
p28
sS'124'
p29
S'Maruti S-Cross'
p30
sS'125'
p31
S'Maruti Ritz'
p32
sS'126'
p33
S'Maruti Alto K10'
p34
sS'127'
p35
S'Tata Sumo'
p36
sS'128'
p37
S'Land Rover Range Rover'
p38
sS'129'
p39
S'Audi RS6 Avant'
p40
sS'199'
p41
S'Hyundai Elite i20'
p42
sS'198'
p43
S'Mercedes-Benz GL-Class'
p44
sS'195'
p45
S'Mercedes-Benz CLA'
p46
sS'194'
p47
S'Toyota Etios'
p48
sS'197'
p49
S'Mahindra Xylo'
p50
sS'196'
p51
S'Maruti Celerio'
p52
sS'191'
p53
S'Toyota Etios Cross'
p54
sS'190'
p55
S'Ford Fiesta'
p56
sS'193'
p57
S'Tata Nano'
p58
sS'192'
p59
S'Audi S5'
p60
sS'102'
p61
S'Aston Martin Rapide'
p62
sS'103'
p63
S'Maruti Vitara Brezza'
p64
sS'100'
p65
S'Isuzu MU 7'
p66
sS'101'
p67
S'Tata Zest'
p68
sS'106'
p69
S'Rolls-Royce Phantom'
p70
sS'107'
p71
S'Mini Cooper Convertible'
p72
sS'104'
p73
S'Fiat Punto Pure'
p74
sS'105'
p75
S'Honda Jazz'
p76
sS'39'
p77
S'Mahindra TUV 300'
p78
sS'38'
p79
S'Aston Martin DB9'
p80
sS'33'
p81
S'Mahindra Quanto'
p82
sS'32'
p83
S'Audi Q7'
p84
sS'31'
p85
S'Audi Q5'
p86
sS'30'
p87
S'Mini 5 DOOR'
p88
sS'37'
p89
S'Maruti Swift Dzire'
p90
sS'36'
p91
S'Volvo S60'
p92
sS'35'
p93
S'Honda CR-V'
p94
sS'34'
p95
S'Datsun Redi GO'
p96
sS'109'
p97
S'Volvo XC90'
p98
sS'60'
p99
S'Fiat Linea Classic'
p100
sS'61'
p101
S'Fiat Avventura'
p102
sS'62'
p103
S'Fiat Linea'
p104
sS'63'
p105
S'Ferrari F12berlinetta'
p106
sS'64'
p107
S'Audi A3'
p108
sS'65'
p109
S'Audi A4'
p110
sS'66'
p111
S'Audi A6'
p112
sS'67'
p113
S'Audi A8'
p114
sS'68'
p115
S'Mercedes-Benz CLS'
p116
sS'69'
p117
S'Lamborghini Aventador'
p118
sS'6'
p119
S'Honda Brio'
p120
sS'99'
p121
S'Audi A3 cabriolet'
p122
sS'98'
p123
S'Volkswagen Vento'
p124
sS'168'
p125
S'Maruti Eeco'
p126
sS'169'
p127
S'Volkswagen Jetta'
p128
sS'91'
p129
S'Honda Mobilio'
p130
sS'90'
p131
S'Force Gurkha'
p132
sS'93'
p133
S'Ford EcoSport'
p134
sS'92'
p135
S'Ferrari FF'
p136
sS'95'
p137
S'Jaguar XE'
p138
sS'94'
p139
S'Jaguar XF'
p140
sS'97'
p141
S'Tata Safari Storme'
p142
sS'96'
p143
S'Honda Amaze'
p144
sS'41'
p145
S'Mercedes-Benz E-Class'
p146
sS'1'
p147
S'Mercedes-Benz A-Class'
p148
sS'9'
p149
S'Renault Pulse'
p150
sS'146'
p151
S'Porsche Boxster'
p152
sS'147'
p153
S'Hyundai EON'
p154
sS'144'
p155
S'Volkswagen Beetle'
p156
sS'145'
p157
S'Audi TT'
p158
sS'142'
p159
S'Renault Duster'
p160
sS'143'
p161
S'Chevrolet Sail'
p162
sS'140'
p163
S'Mercedes-Benz GLA Class'
p164
sS'141'
p165
S'Volkswagen Ameo'
p166
sS'148'
p167
S'Audi RS5'
p168
sS'149'
p169
S'Audi RS7'
p170
sS'47'
p171
S'Ford Endeavour'
p172
sS'214'
p173
S'Maserati Gran Turismo'
p174
sS'215'
p175
S'Aston Martin Vanquish'
p176
sS'212'
p177
S'Renault Fluence'
p178
sS'213'
p179
S'Bentley Continental'
p180
sS'210'
p181
S'Volvo V40'
p182
sS'211'
p183
S'Honda City'
p184
sS'133'
p185
S'Land Rover Range Rover Evoque'
p186
sS'132'
p187
S'Mahindra e2o'
p188
sS'131'
p189
S'ICML Extreme'
p190
sS'130'
p191
S'Toyota Fortuner'
p192
sS'137'
p193
S'Toyota Innova Crysta'
p194
sS'136'
p195
S'Renault Lodgy'
p196
sS'135'
p197
S'Mercedes-Benz C-Class'
p198
sS'134'
p199
S'Maruti Gypsy'
p200
sS'139'
p201
S'Mahindra Supro'
p202
sS'138'
p203
S'Toyota Prius'
p204
sS'24'
p205
S'Chevrolet Enjoy'
p206
sS'25'
p207
S'Ferrari California T'
p208
sS'26'
p209
S'BMW 1 Series'
p210
sS'27'
p211
S'Mini 3 DOOR'
p212
sS'20'
p213
S'Volvo S60 Cross Country'
p214
sS'21'
p215
S'Mahindra XUV500'
p216
sS'22'
p217
S'Renault KWID'
p218
sS'23'
p219
S'Bentley Bentayga'
p220
sS'28'
p221
S'Maruti Wagon R'
p222
sS'29'
p223
S'Audi Q3'
p224
sS'4'
p225
S'Fiat 500'
p226
sS'59'
p227
S'Tata Indigo eCS'
p228
sS'58'
p229
S'Chevrolet Spark'
p230
sS'55'
p231
S'Porsche Cayman'
p232
sS'54'
p233
S'Nissan Micra Active'
p234
sS'57'
p235
S'Conquest Evade'
p236
sS'56'
p237
S'Tata Indica eV2'
p238
sS'51'
p239
S'Toyota Land Cruiser'
p240
sS'50'
p241
S'Maruti Baleno'
p242
sS'53'
p243
S'Bentley Flying Spur'
p244
sS'52'
p245
S'Rolls-Royce Wraith'
p246
sS'115'
p247
S'BMW Z4'
p248
sS'114'
p249
S'BMW X3'
p250
sS'117'
p251
S'Porsche Macan'
p252
sS'116'
p253
S'Volvo XC60'
p254
sS'111'
p255
S'Force One SUV'
p256
sS'110'
p257
S'Hyundai Grand i10'
p258
sS'113'
p259
S'Tata Bolt'
p260
sS'112'
p261
S'Hyundai Verna'
p262
sS'82'
p263
S'DC Avanti'
p264
sS'83'
p265
S'Volvo V40 Cross Country'
p266
sS'80'
p267
S'Mahindra Scorpio'
p268
sS'81'
p269
S'Chevrolet Sail Hatchback'
p270
sS'86'
p271
S'Datsun GO Plus'
p272
sS'87'
p273
S'Maserati Quattroporte'
p274
sS'84'
p275
S'Chevrolet Trailblazer'
p276
sS'85'
p277
S'Mitsubishi Pajero Sport'
p278
sS'108'
p279
S'Maruti Alto 800'
p280
sS'7'
p281
S'Renault Scala'
p282
sS'181'
p283
S'Tata Safari'
p284
sS'179'
p285
S'Chevrolet Tavera'
p286
sS'178'
p287
S'Renault Koleos'
p288
sS'177'
p289
S'Fiat Abarth Punto'
p290
sS'176'
p291
S'BMW X1'
p292
sS'175'
p293
S'BMW X6'
p294
sS'174'
p295
S'BMW X5'
p296
sS'173'
p297
S'Chevrolet Cruze'
p298
sS'172'
p299
S'Skoda Rapid'
p300
sS'171'
p301
S'Porsche Panamera'
p302
sS'170'
p303
S'Mahindra Verito Vibe'
p304
sS'182'
p305
S'Fiat Punto EVO'
p306
sS'183'
p307
S'Maruti Ciaz'
p308
sS'180'
p309
S'Land Rover Range Rover Sport'
p310
sS'2'
p311
S'Mahindra Verito'
p312
sS'186'
p313
S'Mahindra NuvoSport'
p314
sS'187'
p315
S'Hyundai i10'
p316
sS'184'
p317
S'Hyundai Santa Fe'
p318
sS'185'
p319
S'BMW 5 Series'
p320
sS'188'
p321
S'Land Rover Discovery Sport'
p322
sS'189'
p323
S'Land Rover Discovery 4'
p324
sS'11'
p325
S'Ferrari 458 Speciale'
p326
sS'10'
p327
S'Audi R8'
p328
sS'13'
p329
S'Mahindra KUV100'
p330
sS'12'
p331
S'Mercedes-Benz M-Class'
p332
sS'15'
p333
S'Lamborghini Huracan'
p334
sS'14'
p335
S'Tata Tiago'
p336
sS'17'
p337
S'Nissan Sunny'
p338
sS'16'
p339
S'Mercedes-Benz G-Class'
p340
sS'19'
p341
S'BMW 3 Series'
p342
sS'18'
p343
S'BMW i8'
p344
sS'88'
p345
S'Premier Rio'
p346
sS'89'
p347
S'Mercedes-Benz B-Class'
p348
sS'151'
p349
S'Volkswagen CrossPolo'
p350
sS'150'
p351
S'Porsche 911'
p352
sS'153'
p353
S'Mini Countryman'
p354
sS'152'
p355
S'Toyota Camry'
p356
sS'155'
p357
S'Toyota Innova'
p358
sS'154'
p359
S'Hyundai Xcent'
p360
sS'157'
p361
S'Hyundai Elantra'
p362
sS'156'
p363
S'Mahindra Bolero'
p364
sS'159'
p365
S'Mercedes-Benz GLS'
p366
sS'158'
p367
S'Chevrolet Beat'
p368
sS'48'
p369
S'Skoda Superb'
p370
sS'49'
p371
S'Nissan Micra'
p372
sS'46'
p373
S'Koenigsegg Agera'
p374
sS'119'
p375
S'Tata Xenon XT'
p376
sS'44'
p377
S'Ford Aspire'
p378
sS'45'
p379
S'Tata Aria'
p380
sS'42'
p381
S'Aston Martin Vantage'
p382
sS'43'
p383
S'Hyundai Creta'
p384
sS'40'
p385
S'Ferrari 488'
p386
sS'118'
p387
S'Skoda Yeti'
p388
sS'5'
p389
S'BMW M Series'
p390
sS'201'
p391
S'Toyota Land Cruiser Prado'
p392
sS'200'
p393
S'Datsun GO'
p394
sS'203'
p395
S'Honda BRV'
p396
sS'202'
p397
S'Maruti Swift'
p398
sS'205'
p399
S'Jaguar XJ'
p400
sS'204'
p401
S'Maserati Gran Cabrio'
p402
sS'207'
p403
S'Toyota Corolla Altis'
p404
sS'206'
p405
S'Volvo S80'
p406
sS'209'
p407
S'Jaguar F-Type'
p408
sS'208'
p409
S'Mercedes-Benz S-Class'
p410
sS'77'
p411
S'Ford Figo'
p412
sS'76'
p413
S'Porsche Cayenne'
p414
sS'75'
p415
S'Rolls-Royce Ghost'
p416
sS'74'
p417
S'Maserati Ghibli'
p418
sS'73'
p419
S'Nissan Terrano'
p420
sS'72'
p421
S'Mercedes-Benz AMG GT'
p422
sS'71'
p423
S'BMW 6 Series'
p424
sS'70'
p425
S'Bugatti Veyron'
p426
sS'79'
p427
S'Ford Mustang'
p428
sS'78'
p429
S'Mahindra Thar'
p430
s.